target datalayout = "e-m:e-p270:32:32-p271:32:32-p272:64:64-i64:64-i128:128-f80:128-n8:16:32:64-S128"
target triple = "x86_64-pc-linux-gnu"

; Function Attrs: mustprogress nounwind uwtable
define dso_local noundef zeroext i1 @_ZN12cmCryptoHash15IntFromHexDigitEcRc(i8 noundef signext %0, ptr noundef nonnull align 1 dereferenceable(1) %1) #1 align 2 {
  %3 = alloca i1, align 1
  %4 = alloca i8, align 1
  %5 = alloca ptr, align 8
  store i8 %0, ptr %4, align 1, !tbaa !34
  store ptr %1, ptr %5, align 8, !tbaa !20
  %6 = load i8, ptr %4, align 1, !tbaa !34
  %7 = sext i8 %6 to i32
  %8 = icmp sge i32 %7, 48
  br i1 %8, label %9, label %19

9:                                                ; preds = %2
  %10 = load i8, ptr %4, align 1, !tbaa !34
  %11 = sext i8 %10 to i32
  %12 = icmp sle i32 %11, 57
  br i1 %12, label %13, label %19

13:                                               ; preds = %9
  %14 = load i8, ptr %4, align 1, !tbaa !34
  %15 = sext i8 %14 to i32
  %16 = sub nsw i32 %15, 48
  %17 = trunc i32 %16 to i8
  %18 = load ptr, ptr %5, align 8, !tbaa !20
  store i8 %17, ptr %18, align 1, !tbaa !34
  store i1 true, ptr %3, align 1
  br label %50

19:                                               ; preds = %9, %2
  %20 = load i8, ptr %4, align 1, !tbaa !34
  %21 = sext i8 %20 to i32
  %22 = icmp sge i32 %21, 97
  br i1 %22, label %23, label %34

23:                                               ; preds = %19
  %24 = load i8, ptr %4, align 1, !tbaa !34
  %25 = sext i8 %24 to i32
  %26 = icmp sle i32 %25, 102
  br i1 %26, label %27, label %34

27:                                               ; preds = %23
  %28 = load i8, ptr %4, align 1, !tbaa !34
  %29 = sext i8 %28 to i32
  %30 = sub nsw i32 %29, 97
  %31 = add nsw i32 %30, 10
  %32 = trunc i32 %31 to i8
  %33 = load ptr, ptr %5, align 8, !tbaa !20
  store i8 %32, ptr %33, align 1, !tbaa !34
  store i1 true, ptr %3, align 1
  br label %50

34:                                               ; preds = %23, %19
  %35 = load i8, ptr %4, align 1, !tbaa !34
  %36 = sext i8 %35 to i32
  %37 = icmp sge i32 %36, 65
  br i1 %37, label %38, label %49

38:                                               ; preds = %34
  %39 = load i8, ptr %4, align 1, !tbaa !34
  %40 = sext i8 %39 to i32
  %41 = icmp sle i32 %40, 70
  br i1 %41, label %42, label %49

42:                                               ; preds = %38
  %43 = load i8, ptr %4, align 1, !tbaa !34
  %44 = sext i8 %43 to i32
  %45 = sub nsw i32 %44, 65
  %46 = add nsw i32 %45, 10
  %47 = trunc i32 %46 to i8
  %48 = load ptr, ptr %5, align 8, !tbaa !20
  store i8 %47, ptr %48, align 1, !tbaa !34
  store i1 true, ptr %3, align 1
  br label %50

49:                                               ; preds = %38, %34
  store i1 false, ptr %3, align 1
  br label %50

50:                                               ; preds = %49, %42, %27, %13
  %51 = load i1, ptr %3, align 1
  ret i1 %51
}