; Function Attrs: mustprogress nofree norecurse nosync nounwind willreturn memory(argmem: write) uwtable
define dso_local noundef zeroext i1 @_ZN12cmCryptoHash15IntFromHexDigitEcRc(i8 noundef signext %0, ptr noundef nonnull writeonly align 1 captures(none) dereferenceable(1) %1) local_unnamed_addr #9 align 2 {
  %3 = add i8 %0, -48
  %or.cond = icmp ult i8 %3, 10
  br i1 %or.cond, label %.sink.split, label %4

4:                                                ; preds = %2
  %5 = add i8 %0, -97
  %or.cond5 = icmp ult i8 %5, 6
  br i1 %or.cond5, label %6, label %8

6:                                                ; preds = %4
  %7 = add nsw i8 %0, -87
  br label %.sink.split

8:                                                ; preds = %4
  %9 = add i8 %0, -65
  %or.cond8 = icmp ult i8 %9, 6
  br i1 %or.cond8, label %10, label %12

10:                                               ; preds = %8
  %11 = add nsw i8 %0, -55
  br label %.sink.split

.sink.split:                                      ; preds = %2, %6, %10
  %.sink = phi i8 [ %11, %10 ], [ %7, %6 ], [ %3, %2 ]
  store i8 %.sink, ptr %1, align 1, !tbaa !41
  br label %12

12:                                               ; preds = %.sink.split, %8
  %.0 = phi i1 [ false, %8 ], [ true, %.sink.split ]
  ret i1 %.0
}